target datalayout = "e-m:e-p270:32:32-p271:32:32-p272:64:64-i64:64-i128:128-f80:128-n8:16:32:64-S128"
target triple = "x86_64-unknown-linux-gnu"

%"struct.re2::RuneRange" = type { i32, i32 }
%"class.re2::CharClass" = type <{ i8, [3 x i8], i32, ptr, i32, [4 x i8] }>

; Function Attrs: mustprogress nounwind uwtable
define linkonce_odr void @_ZN3re29RuneRangeC2Eii(ptr noundef nonnull align 4 dereferenceable(8) %this, i32 noundef %l, i32 noundef %h) unnamed_addr #0 comdat align 2 {
entry:
  %this.addr = alloca ptr, align 8
  %l.addr = alloca i32, align 4
  %h.addr = alloca i32, align 4
  store ptr %this, ptr %this.addr, align 8
  store i32 %l, ptr %l.addr, align 4
  store i32 %h, ptr %h.addr, align 4
  %this1 = load ptr, ptr %this.addr, align 8
  %lo = getelementptr inbounds %"struct.re2::RuneRange", ptr %this1, i32 0, i32 0
  %0 = load i32, ptr %l.addr, align 4
  store i32 %0, ptr %lo, align 4
  %hi = getelementptr inbounds %"struct.re2::RuneRange", ptr %this1, i32 0, i32 1
  %1 = load i32, ptr %h.addr, align 4
  store i32 %1, ptr %hi, align 4
  ret void
}

; Function Attrs: mustprogress nounwind uwtable
define linkonce_odr noundef ptr @_ZN3re29CharClass3endEv(ptr noundef nonnull align 8 dereferenceable(20) %this) #0 comdat align 2 {
entry:
  %this.addr = alloca ptr, align 8
  store ptr %this, ptr %this.addr, align 8
  %this1 = load ptr, ptr %this.addr, align 8
  %ranges_ = getelementptr inbounds %"class.re2::CharClass", ptr %this1, i32 0, i32 3
  %0 = load ptr, ptr %ranges_, align 8
  %nranges_ = getelementptr inbounds %"class.re2::CharClass", ptr %this1, i32 0, i32 4
  %1 = load i32, ptr %nranges_, align 8
  %idx.ext = sext i32 %1 to i64
  %add.ptr = getelementptr inbounds %"struct.re2::RuneRange", ptr %0, i64 %idx.ext
  ret ptr %add.ptr
}

; Function Attrs: mustprogress nounwind uwtable
define linkonce_odr noundef ptr @_ZN3re29CharClass5beginEv(ptr noundef nonnull align 8 dereferenceable(20) %this) #0 comdat align 2 {
entry:
  %this.addr = alloca ptr, align 8
  store ptr %this, ptr %this.addr, align 8
  %this1 = load ptr, ptr %this.addr, align 8
  %ranges_ = getelementptr inbounds %"class.re2::CharClass", ptr %this1, i32 0, i32 3
  %0 = load ptr, ptr %ranges_, align 8
  ret ptr %0
}

; Function Attrs: mustprogress uwtable
define noundef ptr @_ZN3re29CharClass3NewEm(i64 noundef %maxranges) #3 align 2 {
entry:
  %maxranges.addr = alloca i64, align 8
  %cc = alloca ptr, align 8
  %data = alloca ptr, align 8
  store i64 %maxranges, ptr %maxranges.addr, align 8
  %0 = load i64, ptr %maxranges.addr, align 8
  %mul = mul i64 %0, 8
  %add = add i64 24, %mul
  %call = call noalias noundef nonnull ptr @_Znam(i64 noundef %add) #19
  store ptr %call, ptr %data, align 8
  %1 = load ptr, ptr %data, align 8
  store ptr %1, ptr %cc, align 8
  %2 = load ptr, ptr %data, align 8
  %add.ptr = getelementptr inbounds i8, ptr %2, i64 24
  %3 = load ptr, ptr %cc, align 8
  %ranges_ = getelementptr inbounds %"class.re2::CharClass", ptr %3, i32 0, i32 3
  store ptr %add.ptr, ptr %ranges_, align 8
  %4 = load ptr, ptr %cc, align 8
  %nranges_ = getelementptr inbounds %"class.re2::CharClass", ptr %4, i32 0, i32 4
  store i32 0, ptr %nranges_, align 8
  %5 = load ptr, ptr %cc, align 8
  %folds_ascii_ = getelementptr inbounds %"class.re2::CharClass", ptr %5, i32 0, i32 0
  store i8 0, ptr %folds_ascii_, align 8
  %6 = load ptr, ptr %cc, align 8
  %nrunes_ = getelementptr inbounds %"class.re2::CharClass", ptr %6, i32 0, i32 2
  store i32 0, ptr %nrunes_, align 4
  %7 = load ptr, ptr %cc, align 8
  ret ptr %7
}

; Function Attrs: mustprogress uwtable
define noundef ptr @_ZN3re29CharClass6NegateEv(ptr noundef nonnull align 8 dereferenceable(20) %this) #3 align 2 {
entry:
  %this.addr = alloca ptr, align 8
  %cc = alloca ptr, align 8
  %n = alloca i32, align 4
  %nextlo = alloca i32, align 4
  %it = alloca ptr, align 8
  %ref.tmp = alloca %"struct.re2::RuneRange", align 4
  %ref.tmp14 = alloca %"struct.re2::RuneRange", align 4
  store ptr %this, ptr %this.addr, align 8
  %this1 = load ptr, ptr %this.addr, align 8
  %nranges_ = getelementptr inbounds %"class.re2::CharClass", ptr %this1, i32 0, i32 4
  %0 = load i32, ptr %nranges_, align 8
  %add = add nsw i32 %0, 1
  %conv = sext i32 %add to i64
  %call = call noundef ptr @_ZN3re29CharClass3NewEm(i64 noundef %conv)
  store ptr %call, ptr %cc, align 8
  %folds_ascii_ = getelementptr inbounds %"class.re2::CharClass", ptr %this1, i32 0, i32 0
  %1 = load i8, ptr %folds_ascii_, align 8
  %tobool = trunc i8 %1 to i1
  %2 = load ptr, ptr %cc, align 8
  %folds_ascii_2 = getelementptr inbounds %"class.re2::CharClass", ptr %2, i32 0, i32 0
  %frombool = zext i1 %tobool to i8
  store i8 %frombool, ptr %folds_ascii_2, align 8
  %nrunes_ = getelementptr inbounds %"class.re2::CharClass", ptr %this1, i32 0, i32 2
  %3 = load i32, ptr %nrunes_, align 4
  %sub = sub nsw i32 1114112, %3
  %4 = load ptr, ptr %cc, align 8
  %nrunes_3 = getelementptr inbounds %"class.re2::CharClass", ptr %4, i32 0, i32 2
  store i32 %sub, ptr %nrunes_3, align 4
  store i32 0, ptr %n, align 4
  store i32 0, ptr %nextlo, align 4
  %call4 = call noundef ptr @_ZN3re29CharClass5beginEv(ptr noundef nonnull align 8 dereferenceable(20) %this1)
  store ptr %call4, ptr %it, align 8
  br label %for.cond

for.cond:                                         ; preds = %for.inc, %entry
  %5 = load ptr, ptr %it, align 8
  %call5 = call noundef ptr @_ZN3re29CharClass3endEv(ptr noundef nonnull align 8 dereferenceable(20) %this1)
  %cmp = icmp ne ptr %5, %call5
  br i1 %cmp, label %for.body, label %for.end

for.body:                                         ; preds = %for.cond
  %6 = load ptr, ptr %it, align 8
  %lo = getelementptr inbounds %"struct.re2::RuneRange", ptr %6, i32 0, i32 0
  %7 = load i32, ptr %lo, align 4
  %8 = load i32, ptr %nextlo, align 4
  %cmp6 = icmp eq i32 %7, %8
  br i1 %cmp6, label %if.then, label %if.else

if.then:                                          ; preds = %for.body
  %9 = load ptr, ptr %it, align 8
  %hi = getelementptr inbounds %"struct.re2::RuneRange", ptr %9, i32 0, i32 1
  %10 = load i32, ptr %hi, align 4
  %add7 = add nsw i32 %10, 1
  store i32 %add7, ptr %nextlo, align 4
  br label %if.end

if.else:                                          ; preds = %for.body
  %11 = load i32, ptr %nextlo, align 4
  %12 = load ptr, ptr %it, align 8
  %lo8 = getelementptr inbounds %"struct.re2::RuneRange", ptr %12, i32 0, i32 0
  %13 = load i32, ptr %lo8, align 4
  %sub9 = sub nsw i32 %13, 1
  call void @_ZN3re29RuneRangeC2Eii(ptr noundef nonnull align 4 dereferenceable(8) %ref.tmp, i32 noundef %11, i32 noundef %sub9)
  %14 = load ptr, ptr %cc, align 8
  %ranges_ = getelementptr inbounds %"class.re2::CharClass", ptr %14, i32 0, i32 3
  %15 = load ptr, ptr %ranges_, align 8
  %16 = load i32, ptr %n, align 4
  %inc = add nsw i32 %16, 1
  store i32 %inc, ptr %n, align 4
  %idxprom = sext i32 %16 to i64
  %arrayidx = getelementptr inbounds %"struct.re2::RuneRange", ptr %15, i64 %idxprom
  call void @llvm.memcpy.p0.p0.i64(ptr align 4 %arrayidx, ptr align 4 %ref.tmp, i64 8, i1 false)
  %17 = load ptr, ptr %it, align 8
  %hi10 = getelementptr inbounds %"struct.re2::RuneRange", ptr %17, i32 0, i32 1
  %18 = load i32, ptr %hi10, align 4
  %add11 = add nsw i32 %18, 1
  store i32 %add11, ptr %nextlo, align 4
  br label %if.end

if.end:                                           ; preds = %if.else, %if.then
  br label %for.inc

for.inc:                                          ; preds = %if.end
  %19 = load ptr, ptr %it, align 8
  %incdec.ptr = getelementptr inbounds %"struct.re2::RuneRange", ptr %19, i32 1
  store ptr %incdec.ptr, ptr %it, align 8
  br label %for.cond, !llvm.loop !24

for.end:                                          ; preds = %for.cond
  %20 = load i32, ptr %nextlo, align 4
  %cmp12 = icmp sle i32 %20, 1114111
  br i1 %cmp12, label %if.then13, label %if.end19

if.then13:                                        ; preds = %for.end
  %21 = load i32, ptr %nextlo, align 4
  call void @_ZN3re29RuneRangeC2Eii(ptr noundef nonnull align 4 dereferenceable(8) %ref.tmp14, i32 noundef %21, i32 noundef 1114111)
  %22 = load ptr, ptr %cc, align 8
  %ranges_15 = getelementptr inbounds %"class.re2::CharClass", ptr %22, i32 0, i32 3
  %23 = load ptr, ptr %ranges_15, align 8
  %24 = load i32, ptr %n, align 4
  %inc16 = add nsw i32 %24, 1
  store i32 %inc16, ptr %n, align 4
  %idxprom17 = sext i32 %24 to i64
  %arrayidx18 = getelementptr inbounds %"struct.re2::RuneRange", ptr %23, i64 %idxprom17
  call void @llvm.memcpy.p0.p0.i64(ptr align 4 %arrayidx18, ptr align 4 %ref.tmp14, i64 8, i1 false)
  br label %if.end19

if.end19:                                         ; preds = %if.then13, %for.end
  %25 = load i32, ptr %n, align 4
  %26 = load ptr, ptr %cc, align 8
  %nranges_20 = getelementptr inbounds %"class.re2::CharClass", ptr %26, i32 0, i32 4
  store i32 %25, ptr %nranges_20, align 8
  %27 = load ptr, ptr %cc, align 8
  ret ptr %27
}