; Function Attrs: mustprogress uwtable
define noundef nonnull ptr @_ZN3re29CharClass6NegateEv(ptr nocapture noundef nonnull readonly align 8 dereferenceable(20) %this) local_unnamed_addr #7 align 2 {
entry:
  %nranges_ = getelementptr inbounds i8, ptr %this, i64 16
  %0 = load i32, ptr %nranges_, align 8
  %add = add nsw i32 %0, 1
  %conv = sext i32 %add to i64
  %mul.i = shl nsw i64 %conv, 3
  %add.i = add nsw i64 %mul.i, 24
  %call.i = tail call noalias noundef nonnull ptr @_Znam(i64 noundef %add.i) #29
  %add.ptr.i = getelementptr inbounds i8, ptr %call.i, i64 24
  %ranges_.i = getelementptr inbounds i8, ptr %call.i, i64 8
  store ptr %add.ptr.i, ptr %ranges_.i, align 8
  %nranges_.i = getelementptr inbounds i8, ptr %call.i, i64 16
  store i32 0, ptr %nranges_.i, align 8
  %nrunes_.i = getelementptr inbounds i8, ptr %call.i, i64 4
  %1 = load i8, ptr %this, align 8
  %2 = and i8 %1, 1
  store i8 %2, ptr %call.i, align 8
  %nrunes_ = getelementptr inbounds i8, ptr %this, i64 4
  %3 = load i32, ptr %nrunes_, align 4
  %sub = sub nsw i32 1114112, %3
  store i32 %sub, ptr %nrunes_.i, align 4
  %ranges_.i16 = getelementptr inbounds i8, ptr %this, i64 8
  %cmp.not23 = icmp eq i32 %0, 0
  br i1 %cmp.not23, label %if.then13, label %for.body.preheader

for.body.preheader:                               ; preds = %entry
  %4 = load ptr, ptr %ranges_.i16, align 8
  br label %for.body

for.body:                                         ; preds = %for.body.preheader, %for.inc
  %5 = phi i32 [ %9, %for.inc ], [ %0, %for.body.preheader ]
  %6 = phi ptr [ %10, %for.inc ], [ %4, %for.body.preheader ]
  %it.026 = phi ptr [ %incdec.ptr, %for.inc ], [ %4, %for.body.preheader ]
  %nextlo.025 = phi i32 [ %nextlo.1, %for.inc ], [ 0, %for.body.preheader ]
  %n.024 = phi i32 [ %n.1, %for.inc ], [ 0, %for.body.preheader ]
  %7 = load i32, ptr %it.026, align 4
  %cmp6 = icmp eq i32 %7, %nextlo.025
  br i1 %cmp6, label %for.inc, label %if.else

if.else:                                          ; preds = %for.body
  %sub9 = add nsw i32 %7, -1
  %8 = load ptr, ptr %ranges_.i, align 8
  %inc = add nsw i32 %n.024, 1
  %idxprom = sext i32 %n.024 to i64
  %arrayidx = getelementptr inbounds %"struct.re2::RuneRange", ptr %8, i64 %idxprom
  %ref.tmp.sroa.2.0.insert.ext = zext i32 %sub9 to i64
  %ref.tmp.sroa.2.0.insert.shift = shl nuw i64 %ref.tmp.sroa.2.0.insert.ext, 32
  %ref.tmp.sroa.0.0.insert.ext = zext i32 %nextlo.025 to i64
  %ref.tmp.sroa.0.0.insert.insert = or disjoint i64 %ref.tmp.sroa.2.0.insert.shift, %ref.tmp.sroa.0.0.insert.ext
  store i64 %ref.tmp.sroa.0.0.insert.insert, ptr %arrayidx, align 4
  %.pre = load ptr, ptr %ranges_.i16, align 8
  %.pre28 = load i32, ptr %nranges_, align 8
  br label %for.inc

for.inc:                                          ; preds = %for.body, %if.else
  %9 = phi i32 [ %.pre28, %if.else ], [ %5, %for.body ]
  %10 = phi ptr [ %.pre, %if.else ], [ %6, %for.body ]
  %n.1 = phi i32 [ %inc, %if.else ], [ %n.024, %for.body ]
  %nextlo.1.in.in = getelementptr inbounds i8, ptr %it.026, i64 4
  %nextlo.1.in = load i32, ptr %nextlo.1.in.in, align 4
  %nextlo.1 = add nsw i32 %nextlo.1.in, 1
  %incdec.ptr = getelementptr inbounds i8, ptr %it.026, i64 8
  %idx.ext.i = sext i32 %9 to i64
  %add.ptr.i19 = getelementptr inbounds %"struct.re2::RuneRange", ptr %10, i64 %idx.ext.i
  %cmp.not = icmp eq ptr %incdec.ptr, %add.ptr.i19
  br i1 %cmp.not, label %for.end, label %for.body, !llvm.loop !49

for.end:                                          ; preds = %for.inc
  %cmp12 = icmp slt i32 %nextlo.1.in, 1114111
  br i1 %cmp12, label %if.then13, label %if.end19

if.then13:                                        ; preds = %entry, %for.end
  %nextlo.0.lcssa33 = phi i32 [ %nextlo.1, %for.end ], [ 0, %entry ]
  %n.0.lcssa32 = phi i32 [ %n.1, %for.end ], [ 0, %entry ]
  %11 = load ptr, ptr %ranges_.i, align 8
  %inc16 = add nsw i32 %n.0.lcssa32, 1
  %idxprom17 = sext i32 %n.0.lcssa32 to i64
  %arrayidx18 = getelementptr inbounds %"struct.re2::RuneRange", ptr %11, i64 %idxprom17
  %ref.tmp14.sroa.0.0.insert.ext = zext i32 %nextlo.0.lcssa33 to i64
  %ref.tmp14.sroa.0.0.insert.insert = or disjoint i64 %ref.tmp14.sroa.0.0.insert.ext, 4785070309113856
  store i64 %ref.tmp14.sroa.0.0.insert.insert, ptr %arrayidx18, align 4
  br label %if.end19

if.end19:                                         ; preds = %if.then13, %for.end
  %n.2 = phi i32 [ %inc16, %if.then13 ], [ %n.1, %for.end ]
  store i32 %n.2, ptr %nranges_.i, align 8
  ret ptr %call.i
}